target datalayout = "e-m:e-p270:32:32-p271:32:32-p272:64:64-i64:64-i128:128-f80:128-n8:16:32:64-S128"
target triple = "x86_64-pc-linux-gnu"

%struct.VLC = type { i32, ptr, i32, i32 }
%struct.VLCInitState = type { ptr, i32 }
%struct.VLCElem = type { %union.anon }
%union.anon = type { %struct.anon }
%struct.anon = type { i16, i16 }

; Function Attrs: cold nounwind optsize uwtable
define ptr @ff_vlc_init_tables_from_lengths(ptr noundef %0, i32 noundef %1, i32 noundef %2, ptr noundef %3, i32 noundef %4, ptr noundef %5, i32 noundef %6, i32 noundef %7, i32 noundef %8, i32 noundef %9) #6 {
  %11 = alloca ptr, align 8
  %12 = alloca i32, align 4
  %13 = alloca i32, align 4
  %14 = alloca ptr, align 8
  %15 = alloca i32, align 4
  %16 = alloca ptr, align 8
  %17 = alloca i32, align 4
  %18 = alloca i32, align 4
  %19 = alloca i32, align 4
  %20 = alloca i32, align 4
  %21 = alloca %struct.VLC, align 8
  store ptr %0, ptr %11, align 8, !tbaa !46
  store i32 %1, ptr %12, align 4, !tbaa !9
  store i32 %2, ptr %13, align 4, !tbaa !9
  store ptr %3, ptr %14, align 8, !tbaa !14
  store i32 %4, ptr %15, align 4, !tbaa !9
  store ptr %5, ptr %16, align 8, !tbaa !11
  store i32 %6, ptr %17, align 4, !tbaa !9
  store i32 %7, ptr %18, align 4, !tbaa !9
  store i32 %8, ptr %19, align 4, !tbaa !9
  store i32 %9, ptr %20, align 4, !tbaa !9
  call void @llvm.lifetime.start.p0(i64 24, ptr %21) #8
  %22 = getelementptr inbounds nuw %struct.VLC, ptr %21, i32 0, i32 0
  store i32 0, ptr %22, align 8, !tbaa !36
  %23 = getelementptr i8, ptr %21, i64 4
  call void @llvm.memset.p0.i64(ptr align 4 %23, i8 0, i64 4, i1 false)
  %24 = getelementptr inbounds nuw %struct.VLC, ptr %21, i32 0, i32 1
  %25 = load ptr, ptr %11, align 8, !tbaa !46
  %26 = getelementptr inbounds nuw %struct.VLCInitState, ptr %25, i32 0, i32 0
  %27 = load ptr, ptr %26, align 8, !tbaa !48
  store ptr %27, ptr %24, align 8, !tbaa !40
  %28 = getelementptr inbounds nuw %struct.VLC, ptr %21, i32 0, i32 2
  store i32 0, ptr %28, align 8, !tbaa !39
  %29 = getelementptr inbounds nuw %struct.VLC, ptr %21, i32 0, i32 3
  %30 = load ptr, ptr %11, align 8, !tbaa !46
  %31 = getelementptr inbounds nuw %struct.VLCInitState, ptr %30, i32 0, i32 1
  %32 = load i32, ptr %31, align 8, !tbaa !50
  store i32 %32, ptr %29, align 4, !tbaa !41
  %33 = load i32, ptr %12, align 4, !tbaa !9
  %34 = load i32, ptr %13, align 4, !tbaa !9
  %35 = load ptr, ptr %14, align 8, !tbaa !14
  %36 = load i32, ptr %15, align 4, !tbaa !9
  %37 = load ptr, ptr %16, align 8, !tbaa !11
  %38 = load i32, ptr %17, align 4, !tbaa !9
  %39 = load i32, ptr %18, align 4, !tbaa !9
  %40 = load i32, ptr %19, align 4, !tbaa !9
  %41 = load i32, ptr %20, align 4, !tbaa !9
  %42 = or i32 %41, 3
  %43 = call i32 @ff_vlc_init_from_lengths(ptr noundef %21, i32 noundef %33, i32 noundef %34, ptr noundef %35, i32 noundef %36, ptr noundef %37, i32 noundef %38, i32 noundef %39, i32 noundef %40, i32 noundef %42, ptr noundef null)
  %44 = getelementptr inbounds nuw %struct.VLC, ptr %21, i32 0, i32 2
  %45 = load i32, ptr %44, align 8, !tbaa !39
  %46 = load ptr, ptr %11, align 8, !tbaa !46
  %47 = getelementptr inbounds nuw %struct.VLCInitState, ptr %46, i32 0, i32 0
  %48 = load ptr, ptr %47, align 8, !tbaa !48
  %49 = sext i32 %45 to i64
  %50 = getelementptr inbounds %struct.VLCElem, ptr %48, i64 %49
  store ptr %50, ptr %47, align 8, !tbaa !48
  %51 = getelementptr inbounds nuw %struct.VLC, ptr %21, i32 0, i32 2
  %52 = load i32, ptr %51, align 8, !tbaa !39
  %53 = load ptr, ptr %11, align 8, !tbaa !46
  %54 = getelementptr inbounds nuw %struct.VLCInitState, ptr %53, i32 0, i32 1
  %55 = load i32, ptr %54, align 8, !tbaa !50
  %56 = sub i32 %55, %52
  store i32 %56, ptr %54, align 8, !tbaa !50
  %57 = getelementptr inbounds nuw %struct.VLC, ptr %21, i32 0, i32 1
  %58 = load ptr, ptr %57, align 8, !tbaa !40
  call void @llvm.lifetime.end.p0(i64 24, ptr %21) #8
  ret ptr %58
}