; Function Attrs: cold nounwind optsize uwtable
define ptr @ff_vlc_init_tables_from_lengths(ptr noundef captures(none) %0, i32 noundef %1, i32 noundef %2, ptr noundef readonly captures(none) %3, i32 noundef %4, ptr noundef readonly captures(address_is_null) %5, i32 noundef %6, i32 noundef %7, i32 noundef %8, i32 noundef %9) local_unnamed_addr #4 {
  %11 = alloca %struct.VLC, align 8
  call void @llvm.lifetime.start.p0(i64 24, ptr nonnull %11) #8
  store i32 0, ptr %11, align 8, !tbaa !4
  %12 = getelementptr inbounds nuw i8, ptr %11, i64 4
  store i32 0, ptr %12, align 4
  %13 = getelementptr inbounds nuw i8, ptr %11, i64 8
  %14 = load ptr, ptr %0, align 8, !tbaa !32
  store ptr %14, ptr %13, align 8, !tbaa !12
  %15 = getelementptr inbounds nuw i8, ptr %11, i64 16
  store i32 0, ptr %15, align 8, !tbaa !11
  %16 = getelementptr inbounds nuw i8, ptr %11, i64 20
  %17 = getelementptr inbounds nuw i8, ptr %0, i64 8
  %18 = load i32, ptr %17, align 8, !tbaa !34
  store i32 %18, ptr %16, align 4, !tbaa !13
  %19 = or i32 %9, 3
  %20 = call i32 @ff_vlc_init_from_lengths(ptr noundef nonnull %11, i32 noundef %1, i32 noundef %2, ptr noundef %3, i32 noundef %4, ptr noundef %5, i32 noundef %6, i32 noundef %7, i32 noundef %8, i32 noundef %19, ptr noundef null)
  %21 = load i32, ptr %15, align 8, !tbaa !11
  %22 = load ptr, ptr %0, align 8, !tbaa !32
  %23 = sext i32 %21 to i64
  %24 = getelementptr inbounds %struct.VLCElem, ptr %22, i64 %23
  store ptr %24, ptr %0, align 8, !tbaa !32
  %25 = load i32, ptr %17, align 8, !tbaa !34
  %26 = sub i32 %25, %21
  store i32 %26, ptr %17, align 8, !tbaa !34
  %27 = load ptr, ptr %13, align 8, !tbaa !12
  call void @llvm.lifetime.end.p0(i64 24, ptr nonnull %11) #8
  ret ptr %27
}